; Function Attrs: nounwind uwtable
define dso_local void @check_file_clone() local_unnamed_addr #2 {
  %1 = alloca [1024 x i8], align 16
  %2 = alloca [1024 x i8], align 16
  call void @llvm.lifetime.start.p0(i64 1024, ptr nonnull %1) #10
  call void @llvm.lifetime.start.p0(i64 1024, ptr nonnull %2) #10
  %3 = load ptr, ptr getelementptr inbounds nuw (i8, ptr @old_cluster, i64 136), align 8
  %4 = call i32 (ptr, i64, ptr, ...) @pg_snprintf(ptr noundef nonnull %1, i64 noundef 1024, ptr noundef nonnull @.str.11, ptr noundef %3) #10
  %5 = load ptr, ptr getelementptr inbounds nuw (i8, ptr @new_cluster, i64 136), align 8
  %6 = call i32 (ptr, i64, ptr, ...) @pg_snprintf(ptr noundef nonnull %2, i64 noundef 1024, ptr noundef nonnull @.str.12, ptr noundef %5) #10
  %7 = call i32 @unlink(ptr noundef nonnull %2) #10
  %8 = call i32 (ptr, i32, ...) @open(ptr noundef nonnull %1, i32 noundef 0, i32 noundef 0) #10
  %9 = icmp slt i32 %8, 0
  br i1 %9, label %10, label %11

10:                                               ; preds = %0
  call void (ptr, ...) @pg_fatal(ptr noundef nonnull @.str.13, ptr noundef nonnull %1) #11
  unreachable

11:                                               ; preds = %0
  %12 = load i32, ptr @pg_file_create_mode, align 4
  %13 = call i32 (ptr, i32, ...) @open(ptr noundef nonnull %2, i32 noundef 194, i32 noundef %12) #10
  %14 = icmp slt i32 %13, 0
  br i1 %14, label %15, label %16

15:                                               ; preds = %11
  call void (ptr, ...) @pg_fatal(ptr noundef nonnull @.str.14, ptr noundef nonnull %2) #11
  unreachable

16:                                               ; preds = %11
  %17 = call i32 (i32, i64, ...) @ioctl(i32 noundef %13, i64 noundef 1074041865, i32 noundef %8) #10
  %18 = icmp slt i32 %17, 0
  br i1 %18, label %19, label %20

19:                                               ; preds = %16
  call void (ptr, ...) @pg_fatal(ptr noundef nonnull @.str.15) #11
  unreachable

20:                                               ; preds = %16
  %21 = call i32 @close(i32 noundef %8) #10
  %22 = call i32 @close(i32 noundef %13) #10
  %23 = call i32 @unlink(ptr noundef nonnull %2) #10
  call void @llvm.lifetime.end.p0(i64 1024, ptr nonnull %2) #10
  call void @llvm.lifetime.end.p0(i64 1024, ptr nonnull %1) #10
  ret void
}